target datalayout = "e-m:e-p270:32:32-p271:32:32-p272:64:64-i64:64-i128:128-f80:128-n8:16:32:64-S128"
target triple = "x86_64-pc-linux-gnu"

%struct.Qureg = type { i32, i32, i32, i64, i64, i32, i32, %struct.ComplexArray, %struct.ComplexArray, %struct.ComplexArray, ptr, ptr, ptr, ptr, ptr, ptr }
%struct.ComplexArray = type { ptr, ptr }

; Function Attrs: nounwind uwtable
define void @QuESTAssert(i32 noundef %0, i32 noundef %1, ptr noundef %2) #0 {
  %4 = alloca i32, align 4
  %5 = alloca i32, align 4
  %6 = alloca ptr, align 8
  store i32 %0, ptr %4, align 4, !tbaa !9
  store i32 %1, ptr %5, align 4, !tbaa !9
  store ptr %2, ptr %6, align 8, !tbaa !4
  %7 = load i32, ptr %4, align 4, !tbaa !9
  %8 = icmp ne i32 %7, 0
  br i1 %8, label %15, label %9

9:                                                ; preds = %3
  %10 = load i32, ptr %5, align 4, !tbaa !9
  %11 = zext i32 %10 to i64
  %12 = getelementptr inbounds nuw [92 x ptr], ptr @errorMessages, i64 0, i64 %11
  %13 = load ptr, ptr %12, align 8, !tbaa !4
  %14 = load ptr, ptr %6, align 8, !tbaa !4
  call void @invalidQuESTInputError(ptr noundef %13, ptr noundef %14)
  br label %15

15:                                               ; preds = %9, %3
  ret void
}

; Function Attrs: nounwind uwtable
define void @validateAmpIndex(ptr noundef byval(%struct.Qureg) align 8 %0, i64 noundef %1, ptr noundef %2) #0 {
  %4 = alloca i64, align 8
  %5 = alloca ptr, align 8
  %6 = alloca i64, align 8
  store i64 %1, ptr %4, align 8, !tbaa !32
  store ptr %2, ptr %5, align 8, !tbaa !4
  call void @llvm.lifetime.start.p0(i64 8, ptr %6) #7
  %7 = getelementptr inbounds nuw %struct.Qureg, ptr %0, i32 0, i32 1
  %8 = load i32, ptr %7, align 4, !tbaa !40
  %9 = zext i32 %8 to i64
  %10 = shl i64 1, %9
  store i64 %10, ptr %6, align 8, !tbaa !32
  %11 = load i64, ptr %4, align 8, !tbaa !32
  %12 = icmp sge i64 %11, 0
  br i1 %12, label %13, label %17

13:                                               ; preds = %3
  %14 = load i64, ptr %4, align 8, !tbaa !32
  %15 = load i64, ptr %6, align 8, !tbaa !32
  %16 = icmp slt i64 %14, %15
  br label %17

17:                                               ; preds = %13, %3
  %18 = phi i1 [ false, %3 ], [ %16, %13 ]
  %19 = zext i1 %18 to i32
  %20 = load ptr, ptr %5, align 8, !tbaa !4
  call void @QuESTAssert(i32 noundef %19, i32 noundef 7, ptr noundef %20)
  call void @llvm.lifetime.end.p0(i64 8, ptr %6) #7
  ret void
}

; Function Attrs: nounwind uwtable
define void @validateNumAmps(ptr noundef byval(%struct.Qureg) align 8 %0, i64 noundef %1, i64 noundef %2, ptr noundef %3) #0 {
  %5 = alloca i64, align 8
  %6 = alloca i64, align 8
  %7 = alloca ptr, align 8
  store i64 %1, ptr %5, align 8, !tbaa !32
  store i64 %2, ptr %6, align 8, !tbaa !32
  store ptr %3, ptr %7, align 8, !tbaa !4
  %8 = load i64, ptr %5, align 8, !tbaa !32
  %9 = load ptr, ptr %7, align 8, !tbaa !4
  call void @validateAmpIndex(ptr noundef byval(%struct.Qureg) align 8 %0, i64 noundef %8, ptr noundef %9)
  %10 = load i64, ptr %6, align 8, !tbaa !32
  %11 = icmp sge i64 %10, 0
  br i1 %11, label %12, label %17

12:                                               ; preds = %4
  %13 = load i64, ptr %6, align 8, !tbaa !32
  %14 = getelementptr inbounds nuw %struct.Qureg, ptr %0, i32 0, i32 4
  %15 = load i64, ptr %14, align 8, !tbaa !43
  %16 = icmp sle i64 %13, %15
  br label %17

17:                                               ; preds = %12, %4
  %18 = phi i1 [ false, %4 ], [ %16, %12 ]
  %19 = zext i1 %18 to i32
  %20 = load ptr, ptr %7, align 8, !tbaa !4
  call void @QuESTAssert(i32 noundef %19, i32 noundef 9, ptr noundef %20)
  %21 = load i64, ptr %6, align 8, !tbaa !32
  %22 = load i64, ptr %5, align 8, !tbaa !32
  %23 = add nsw i64 %21, %22
  %24 = getelementptr inbounds nuw %struct.Qureg, ptr %0, i32 0, i32 4
  %25 = load i64, ptr %24, align 8, !tbaa !43
  %26 = icmp sle i64 %23, %25
  %27 = zext i1 %26 to i32
  %28 = load ptr, ptr %7, align 8, !tbaa !4
  call void @QuESTAssert(i32 noundef %27, i32 noundef 11, ptr noundef %28)
  ret void
}