; Function Attrs: nounwind uwtable
define void @validateNumAmps(ptr noundef readonly byval(%struct.Qureg) align 8 captures(none) %0, i64 noundef %1, i64 noundef %2, ptr noundef %3) local_unnamed_addr #3 {
  %.sroa.3.0..sroa_idx = getelementptr inbounds nuw i8, ptr %0, i64 4
  %.sroa.3.0.copyload = load i32, ptr %.sroa.3.0..sroa_idx, align 4
  %5 = zext nneg i32 %.sroa.3.0.copyload to i64
  %6 = shl nuw i64 1, %5
  %7 = icmp slt i64 %1, 0
  %8 = icmp sge i64 %1, %6
  %.not4.i = select i1 %7, i1 true, i1 %8
  br i1 %.not4.i, label %9, label %validateAmpIndex.exit

9:                                                ; preds = %4
  tail call void @invalidQuESTInputError(ptr noundef nonnull @.str.9, ptr noundef %3)
  br label %validateAmpIndex.exit

validateAmpIndex.exit:                            ; preds = %4, %9
  %10 = icmp slt i64 %2, 0
  %11 = getelementptr inbounds nuw i8, ptr %0, i64 24
  %12 = load i64, ptr %11, align 8
  %13 = icmp sgt i64 %2, %12
  %.not10 = select i1 %10, i1 true, i1 %13
  br i1 %.not10, label %14, label %QuESTAssert.exit

14:                                               ; preds = %validateAmpIndex.exit
  tail call void @invalidQuESTInputError(ptr noundef nonnull @.str.11, ptr noundef %3)
  br label %QuESTAssert.exit

QuESTAssert.exit:                                 ; preds = %validateAmpIndex.exit, %14
  %15 = add nsw i64 %2, %1
  %.not = icmp sgt i64 %15, %12
  br i1 %.not, label %16, label %QuESTAssert.exit8

16:                                               ; preds = %QuESTAssert.exit
  tail call void @invalidQuESTInputError(ptr noundef nonnull @.str.13, ptr noundef %3)
  br label %QuESTAssert.exit8

QuESTAssert.exit8:                                ; preds = %QuESTAssert.exit, %16
  ret void
}